; Function Attrs: mustprogress uwtable
define dso_local void @_ZN16GraphPathCheckerC2EP7V3GraphPFbPK11V3GraphEdgeE(ptr noundef nonnull align 8 dereferenceable(24) %0, ptr noundef %1, ptr noundef %2) unnamed_addr #3 align 2 personality ptr @__gxx_personality_v0 {
  store ptr %1, ptr %0, align 8
  %4 = getelementptr inbounds i8, ptr %0, i64 8
  store ptr %2, ptr %4, align 8
  %5 = getelementptr inbounds i8, ptr %0, i64 16
  store i64 0, ptr %5, align 8
  %6 = getelementptr inbounds i8, ptr %1, i64 8
  %.sroa.0.024 = load ptr, ptr %6, align 8
  %.not25 = icmp eq ptr %.sroa.0.024, null
  br i1 %.not25, label %._crit_edge, label %.lr.ph

.lr.ph:                                           ; preds = %3, %.lr.ph
  %.sroa.0.026 = phi ptr [ %.sroa.0.0, %.lr.ph ], [ %.sroa.0.024, %3 ]
  %7 = getelementptr inbounds i8, ptr %.sroa.0.026, i64 8
  %8 = load ptr, ptr %7, align 8
  %.not23 = icmp eq ptr %8, null
  %9 = select i1 %.not23, ptr %.sroa.0.026, ptr %8
  tail call void @llvm.prefetch.p0(ptr nonnull %9, i32 1, i32 3, i32 1)
  %10 = tail call noalias noundef nonnull dereferenceable(16) ptr @_Znwm(i64 noundef 16) #15
  tail call void @llvm.memset.p0.i64(ptr noundef nonnull align 8 dereferenceable(16) %10, i8 0, i64 16, i1 false)
  %11 = getelementptr inbounds i8, ptr %.sroa.0.026, i64 72
  store ptr %10, ptr %11, align 8
  %.sroa.0.0 = load ptr, ptr %7, align 8
  %.not = icmp eq ptr %.sroa.0.0, null
  br i1 %.not, label %._crit_edge, label %.lr.ph

._crit_edge:                                      ; preds = %.lr.ph, %3
  tail call void @_ZN16GraphPathChecker21initHalfCriticalPathsILN8GraphWay2enE0EEEvb(ptr noundef nonnull align 8 dereferenceable(24) %0, i1 noundef zeroext false)
  tail call void @_ZN16GraphPathChecker21initHalfCriticalPathsILN8GraphWay2enE1EEEvb(ptr noundef nonnull align 8 dereferenceable(24) %0, i1 noundef zeroext false)
  ret void
}